target datalayout = "e-m:e-p270:32:32-p271:32:32-p272:64:64-i64:64-i128:128-f80:128-n8:16:32:64-S128"
target triple = "x86_64-pc-linux-gnu"

@err_frame_jit_template = internal constant <{ [41 x i8], [19 x i8] }> <{ [41 x i8] c"\1C\00\00\00\00\00\00\00\01zPR\00\01x\10\0A\00\00\00\00\00\00\00\00\00\1B\00\00\00\00\00\14\00\00\00$\00\00\00\14", [19 x i8] zeroinitializer }>, align 16

; Function Attrs: nounwind uwtable
define hidden ptr @lj_err_register_mcode(ptr noundef %0, i64 noundef %1, ptr noundef %2) #0 {
  %4 = alloca ptr, align 8
  %5 = alloca i64, align 8
  %6 = alloca ptr, align 8
  %7 = alloca ptr, align 8
  store ptr %0, ptr %4, align 8, !tbaa !15
  store i64 %1, ptr %5, align 8, !tbaa !8
  store ptr %2, ptr %6, align 8, !tbaa !50
  call void @llvm.lifetime.start.p0(i64 8, ptr %7) #15
  store ptr @err_unwind_jit, ptr %7, align 8, !tbaa !15
  %8 = load ptr, ptr %6, align 8, !tbaa !50
  call void @llvm.memcpy.p0.p0.i64(ptr align 1 %8, ptr align 16 @err_frame_jit_template, i64 60, i1 false)
  %9 = load ptr, ptr %6, align 8, !tbaa !50
  %10 = getelementptr inbounds i8, ptr %9, i64 18
  call void @llvm.memcpy.p0.p0.i64(ptr align 1 %10, ptr align 8 %7, i64 8, i1 false)
  %11 = load i64, ptr %5, align 8, !tbaa !8
  %12 = sub i64 %11, 60
  %13 = load ptr, ptr %6, align 8, !tbaa !50
  %14 = load ptr, ptr %4, align 8, !tbaa !15
  %15 = ptrtoint ptr %13 to i64
  %16 = ptrtoint ptr %14 to i64
  %17 = sub i64 %15, %16
  %18 = sub i64 %12, %17
  %19 = trunc i64 %18 to i32
  %20 = load ptr, ptr %6, align 8, !tbaa !50
  %21 = getelementptr inbounds i8, ptr %20, i64 44
  store i32 %19, ptr %21, align 4, !tbaa !4
  %22 = load ptr, ptr %6, align 8, !tbaa !50
  %23 = getelementptr inbounds i8, ptr %22, i64 0
  call void @__register_frame(ptr noundef %23)
  %24 = load ptr, ptr %6, align 8, !tbaa !50
  %25 = getelementptr inbounds nuw i8, ptr %24, i64 60
  call void @llvm.lifetime.end.p0(i64 8, ptr %7) #15
  ret ptr %25
}