; Function Attrs: nounwind uwtable
define hidden nonnull ptr @lj_err_register_mcode(ptr noundef %0, i64 noundef %1, ptr noundef initializes((0, 60)) %2) local_unnamed_addr #0 {
  tail call void @llvm.memcpy.p0.p0.i64(ptr noundef nonnull align 1 dereferenceable(60) %2, ptr noundef nonnull align 16 dereferenceable(60) @err_frame_jit_template, i64 60, i1 false)
  %4 = getelementptr inbounds nuw i8, ptr %2, i64 18
  store ptr @err_unwind_jit, ptr %4, align 1
  %5 = ptrtoint ptr %2 to i64
  %6 = ptrtoint ptr %0 to i64
  %.neg = add i64 %1, 4294967236
  %7 = add i64 %.neg, %6
  %8 = sub i64 %7, %5
  %9 = trunc i64 %8 to i32
  %10 = getelementptr inbounds nuw i8, ptr %2, i64 44
  store i32 %9, ptr %10, align 4, !tbaa !17
  tail call void @__register_frame(ptr noundef nonnull %2) #15
  %11 = getelementptr inbounds nuw i8, ptr %2, i64 60
  ret ptr %11
}